target datalayout = "e-m:e-p270:32:32-p271:32:32-p272:64:64-i64:64-i128:128-f80:128-n8:16:32:64-S128"
target triple = "x86_64-pc-linux-gnu"

%struct.FilterParams = type { i32, double, ptr, ptr, ptr }

; Function Attrs: cold nounwind optsize uwtable
define internal void @init_blend_func_12_16bit(ptr noundef %0) #1 {
  %2 = alloca ptr, align 8
  store ptr %0, ptr %2, align 8, !tbaa !77
  %3 = load ptr, ptr %2, align 8, !tbaa !77
  %4 = getelementptr inbounds nuw %struct.FilterParams, ptr %3, i32 0, i32 0
  %5 = load i32, ptr %4, align 8, !tbaa !80
  switch i32 %5, label %126 [
    i32 1, label %6
    i32 28, label %9
    i32 2, label %12
    i32 3, label %15
    i32 4, label %18
    i32 5, label %21
    i32 6, label %24
    i32 7, label %27
    i32 8, label %30
    i32 9, label %33
    i32 10, label %36
    i32 32, label %39
    i32 31, label %42
    i32 27, label %45
    i32 11, label %48
    i32 25, label %51
    i32 30, label %54
    i32 12, label %57
    i32 26, label %60
    i32 13, label %63
    i32 29, label %66
    i32 14, label %69
    i32 0, label %72
    i32 15, label %75
    i32 16, label %78
    i32 17, label %81
    i32 18, label %84
    i32 19, label %87
    i32 20, label %90
    i32 21, label %93
    i32 22, label %96
    i32 23, label %99
    i32 24, label %102
    i32 33, label %105
    i32 34, label %108
    i32 35, label %111
    i32 36, label %114
    i32 37, label %117
    i32 38, label %120
    i32 39, label %123
  ]

6:                                                ; preds = %1
  %7 = load ptr, ptr %2, align 8, !tbaa !77
  %8 = getelementptr inbounds nuw %struct.FilterParams, ptr %7, i32 0, i32 4
  store ptr @blend_addition_12bit, ptr %8, align 8, !tbaa !86
  br label %126

9:                                                ; preds = %1
  %10 = load ptr, ptr %2, align 8, !tbaa !77
  %11 = getelementptr inbounds nuw %struct.FilterParams, ptr %10, i32 0, i32 4
  store ptr @blend_grainmerge_12bit, ptr %11, align 8, !tbaa !86
  br label %126

12:                                               ; preds = %1
  %13 = load ptr, ptr %2, align 8, !tbaa !77
  %14 = getelementptr inbounds nuw %struct.FilterParams, ptr %13, i32 0, i32 4
  store ptr @blend_and_12bit, ptr %14, align 8, !tbaa !86
  br label %126

15:                                               ; preds = %1
  %16 = load ptr, ptr %2, align 8, !tbaa !77
  %17 = getelementptr inbounds nuw %struct.FilterParams, ptr %16, i32 0, i32 4
  store ptr @blend_average_12bit, ptr %17, align 8, !tbaa !86
  br label %126

18:                                               ; preds = %1
  %19 = load ptr, ptr %2, align 8, !tbaa !77
  %20 = getelementptr inbounds nuw %struct.FilterParams, ptr %19, i32 0, i32 4
  store ptr @blend_burn_12bit, ptr %20, align 8, !tbaa !86
  br label %126

21:                                               ; preds = %1
  %22 = load ptr, ptr %2, align 8, !tbaa !77
  %23 = getelementptr inbounds nuw %struct.FilterParams, ptr %22, i32 0, i32 4
  store ptr @blend_darken_12bit, ptr %23, align 8, !tbaa !86
  br label %126

24:                                               ; preds = %1
  %25 = load ptr, ptr %2, align 8, !tbaa !77
  %26 = getelementptr inbounds nuw %struct.FilterParams, ptr %25, i32 0, i32 4
  store ptr @blend_difference_12bit, ptr %26, align 8, !tbaa !86
  br label %126

27:                                               ; preds = %1
  %28 = load ptr, ptr %2, align 8, !tbaa !77
  %29 = getelementptr inbounds nuw %struct.FilterParams, ptr %28, i32 0, i32 4
  store ptr @blend_grainextract_12bit, ptr %29, align 8, !tbaa !86
  br label %126

30:                                               ; preds = %1
  %31 = load ptr, ptr %2, align 8, !tbaa !77
  %32 = getelementptr inbounds nuw %struct.FilterParams, ptr %31, i32 0, i32 4
  store ptr @blend_divide_12bit, ptr %32, align 8, !tbaa !86
  br label %126

33:                                               ; preds = %1
  %34 = load ptr, ptr %2, align 8, !tbaa !77
  %35 = getelementptr inbounds nuw %struct.FilterParams, ptr %34, i32 0, i32 4
  store ptr @blend_dodge_12bit, ptr %35, align 8, !tbaa !86
  br label %126

36:                                               ; preds = %1
  %37 = load ptr, ptr %2, align 8, !tbaa !77
  %38 = getelementptr inbounds nuw %struct.FilterParams, ptr %37, i32 0, i32 4
  store ptr @blend_exclusion_12bit, ptr %38, align 8, !tbaa !86
  br label %126

39:                                               ; preds = %1
  %40 = load ptr, ptr %2, align 8, !tbaa !77
  %41 = getelementptr inbounds nuw %struct.FilterParams, ptr %40, i32 0, i32 4
  store ptr @blend_extremity_12bit, ptr %41, align 8, !tbaa !86
  br label %126

42:                                               ; preds = %1
  %43 = load ptr, ptr %2, align 8, !tbaa !77
  %44 = getelementptr inbounds nuw %struct.FilterParams, ptr %43, i32 0, i32 4
  store ptr @blend_freeze_12bit, ptr %44, align 8, !tbaa !86
  br label %126

45:                                               ; preds = %1
  %46 = load ptr, ptr %2, align 8, !tbaa !77
  %47 = getelementptr inbounds nuw %struct.FilterParams, ptr %46, i32 0, i32 4
  store ptr @blend_glow_12bit, ptr %47, align 8, !tbaa !86
  br label %126

48:                                               ; preds = %1
  %49 = load ptr, ptr %2, align 8, !tbaa !77
  %50 = getelementptr inbounds nuw %struct.FilterParams, ptr %49, i32 0, i32 4
  store ptr @blend_hardlight_12bit, ptr %50, align 8, !tbaa !86
  br label %126

51:                                               ; preds = %1
  %52 = load ptr, ptr %2, align 8, !tbaa !77
  %53 = getelementptr inbounds nuw %struct.FilterParams, ptr %52, i32 0, i32 4
  store ptr @blend_hardmix_12bit, ptr %53, align 8, !tbaa !86
  br label %126

54:                                               ; preds = %1
  %55 = load ptr, ptr %2, align 8, !tbaa !77
  %56 = getelementptr inbounds nuw %struct.FilterParams, ptr %55, i32 0, i32 4
  store ptr @blend_heat_12bit, ptr %56, align 8, !tbaa !86
  br label %126

57:                                               ; preds = %1
  %58 = load ptr, ptr %2, align 8, !tbaa !77
  %59 = getelementptr inbounds nuw %struct.FilterParams, ptr %58, i32 0, i32 4
  store ptr @blend_lighten_12bit, ptr %59, align 8, !tbaa !86
  br label %126

60:                                               ; preds = %1
  %61 = load ptr, ptr %2, align 8, !tbaa !77
  %62 = getelementptr inbounds nuw %struct.FilterParams, ptr %61, i32 0, i32 4
  store ptr @blend_linearlight_12bit, ptr %62, align 8, !tbaa !86
  br label %126

63:                                               ; preds = %1
  %64 = load ptr, ptr %2, align 8, !tbaa !77
  %65 = getelementptr inbounds nuw %struct.FilterParams, ptr %64, i32 0, i32 4
  store ptr @blend_multiply_12bit, ptr %65, align 8, !tbaa !86
  br label %126

66:                                               ; preds = %1
  %67 = load ptr, ptr %2, align 8, !tbaa !77
  %68 = getelementptr inbounds nuw %struct.FilterParams, ptr %67, i32 0, i32 4
  store ptr @blend_multiply128_12bit, ptr %68, align 8, !tbaa !86
  br label %126

69:                                               ; preds = %1
  %70 = load ptr, ptr %2, align 8, !tbaa !77
  %71 = getelementptr inbounds nuw %struct.FilterParams, ptr %70, i32 0, i32 4
  store ptr @blend_negation_12bit, ptr %71, align 8, !tbaa !86
  br label %126

72:                                               ; preds = %1
  %73 = load ptr, ptr %2, align 8, !tbaa !77
  %74 = getelementptr inbounds nuw %struct.FilterParams, ptr %73, i32 0, i32 4
  store ptr @blend_normal_16bit, ptr %74, align 8, !tbaa !86
  br label %126

75:                                               ; preds = %1
  %76 = load ptr, ptr %2, align 8, !tbaa !77
  %77 = getelementptr inbounds nuw %struct.FilterParams, ptr %76, i32 0, i32 4
  store ptr @blend_or_12bit, ptr %77, align 8, !tbaa !86
  br label %126

78:                                               ; preds = %1
  %79 = load ptr, ptr %2, align 8, !tbaa !77
  %80 = getelementptr inbounds nuw %struct.FilterParams, ptr %79, i32 0, i32 4
  store ptr @blend_overlay_12bit, ptr %80, align 8, !tbaa !86
  br label %126

81:                                               ; preds = %1
  %82 = load ptr, ptr %2, align 8, !tbaa !77
  %83 = getelementptr inbounds nuw %struct.FilterParams, ptr %82, i32 0, i32 4
  store ptr @blend_phoenix_12bit, ptr %83, align 8, !tbaa !86
  br label %126

84:                                               ; preds = %1
  %85 = load ptr, ptr %2, align 8, !tbaa !77
  %86 = getelementptr inbounds nuw %struct.FilterParams, ptr %85, i32 0, i32 4
  store ptr @blend_pinlight_12bit, ptr %86, align 8, !tbaa !86
  br label %126

87:                                               ; preds = %1
  %88 = load ptr, ptr %2, align 8, !tbaa !77
  %89 = getelementptr inbounds nuw %struct.FilterParams, ptr %88, i32 0, i32 4
  store ptr @blend_reflect_12bit, ptr %89, align 8, !tbaa !86
  br label %126

90:                                               ; preds = %1
  %91 = load ptr, ptr %2, align 8, !tbaa !77
  %92 = getelementptr inbounds nuw %struct.FilterParams, ptr %91, i32 0, i32 4
  store ptr @blend_screen_12bit, ptr %92, align 8, !tbaa !86
  br label %126

93:                                               ; preds = %1
  %94 = load ptr, ptr %2, align 8, !tbaa !77
  %95 = getelementptr inbounds nuw %struct.FilterParams, ptr %94, i32 0, i32 4
  store ptr @blend_softlight_12bit, ptr %95, align 8, !tbaa !86
  br label %126

96:                                               ; preds = %1
  %97 = load ptr, ptr %2, align 8, !tbaa !77
  %98 = getelementptr inbounds nuw %struct.FilterParams, ptr %97, i32 0, i32 4
  store ptr @blend_subtract_12bit, ptr %98, align 8, !tbaa !86
  br label %126

99:                                               ; preds = %1
  %100 = load ptr, ptr %2, align 8, !tbaa !77
  %101 = getelementptr inbounds nuw %struct.FilterParams, ptr %100, i32 0, i32 4
  store ptr @blend_vividlight_12bit, ptr %101, align 8, !tbaa !86
  br label %126

102:                                              ; preds = %1
  %103 = load ptr, ptr %2, align 8, !tbaa !77
  %104 = getelementptr inbounds nuw %struct.FilterParams, ptr %103, i32 0, i32 4
  store ptr @blend_xor_12bit, ptr %104, align 8, !tbaa !86
  br label %126

105:                                              ; preds = %1
  %106 = load ptr, ptr %2, align 8, !tbaa !77
  %107 = getelementptr inbounds nuw %struct.FilterParams, ptr %106, i32 0, i32 4
  store ptr @blend_softdifference_12bit, ptr %107, align 8, !tbaa !86
  br label %126

108:                                              ; preds = %1
  %109 = load ptr, ptr %2, align 8, !tbaa !77
  %110 = getelementptr inbounds nuw %struct.FilterParams, ptr %109, i32 0, i32 4
  store ptr @blend_geometric_12bit, ptr %110, align 8, !tbaa !86
  br label %126

111:                                              ; preds = %1
  %112 = load ptr, ptr %2, align 8, !tbaa !77
  %113 = getelementptr inbounds nuw %struct.FilterParams, ptr %112, i32 0, i32 4
  store ptr @blend_harmonic_12bit, ptr %113, align 8, !tbaa !86
  br label %126

114:                                              ; preds = %1
  %115 = load ptr, ptr %2, align 8, !tbaa !77
  %116 = getelementptr inbounds nuw %struct.FilterParams, ptr %115, i32 0, i32 4
  store ptr @blend_bleach_12bit, ptr %116, align 8, !tbaa !86
  br label %126

117:                                              ; preds = %1
  %118 = load ptr, ptr %2, align 8, !tbaa !77
  %119 = getelementptr inbounds nuw %struct.FilterParams, ptr %118, i32 0, i32 4
  store ptr @blend_stain_12bit, ptr %119, align 8, !tbaa !86
  br label %126

120:                                              ; preds = %1
  %121 = load ptr, ptr %2, align 8, !tbaa !77
  %122 = getelementptr inbounds nuw %struct.FilterParams, ptr %121, i32 0, i32 4
  store ptr @blend_interpolate_12bit, ptr %122, align 8, !tbaa !86
  br label %126

123:                                              ; preds = %1
  %124 = load ptr, ptr %2, align 8, !tbaa !77
  %125 = getelementptr inbounds nuw %struct.FilterParams, ptr %124, i32 0, i32 4
  store ptr @blend_hardoverlay_12bit, ptr %125, align 8, !tbaa !86
  br label %126

126:                                              ; preds = %1, %123, %120, %117, %114, %111, %108, %105, %102, %99, %96, %93, %90, %87, %84, %81, %78, %75, %72, %69, %66, %63, %60, %57, %54, %51, %48, %45, %42, %39, %36, %33, %30, %27, %24, %21, %18, %15, %12, %9, %6
  ret void
}