; Function Attrs: cold mustprogress nofree norecurse nosync nounwind optsize willreturn memory(argmem: readwrite) uwtable
define internal fastcc void @init_blend_func_12_16bit(ptr noundef captures(none) %0) unnamed_addr #5 {
  %2 = load i32, ptr %0, align 8, !tbaa !68
  %3 = icmp ult i32 %2, 40
  br i1 %3, label %switch.lookup, label %6

switch.lookup:                                    ; preds = %1
  %4 = zext nneg i32 %2 to i64
  %switch.gep = getelementptr inbounds nuw [40 x ptr], ptr @switch.table.init_blend_func_12_16bit, i64 0, i64 %4
  %switch.load = load ptr, ptr %switch.gep, align 8
  %5 = getelementptr inbounds nuw i8, ptr %0, i64 32
  store ptr %switch.load, ptr %5, align 8, !tbaa !71
  br label %6

6:                                                ; preds = %1, %switch.lookup
  ret void
}